; Function Attrs: mustprogress nounwind uwtable
define hidden void @_ZN19OpenColorIO_v2_4dev20GradingPrimaryOpData22replaceDynamicPropertyESt10shared_ptrINS_33DynamicPropertyGradingPrimaryImplEE(ptr nocapture noundef nonnull align 8 dereferenceable(192) %this, ptr nocapture noundef readonly %prop) local_unnamed_addr #4 align 2 personality ptr @__gxx_personality_v0 {
entry:
  %m_value = getelementptr inbounds i8, ptr %this, i64 176
  %0 = load ptr, ptr %prop, align 8
  store ptr %0, ptr %m_value, align 8
  %_M_refcount.i.i = getelementptr inbounds i8, ptr %this, i64 184
  %_M_refcount3.i.i = getelementptr inbounds i8, ptr %prop, i64 8
  %1 = load ptr, ptr %_M_refcount3.i.i, align 8
  %2 = load ptr, ptr %_M_refcount.i.i, align 8
  %cmp.not.i.i.i = icmp eq ptr %1, %2
  br i1 %cmp.not.i.i.i, label %_ZNSt10shared_ptrIN19OpenColorIO_v2_4dev33DynamicPropertyGradingPrimaryImplEEaSERKS2_.exit, label %if.then.i.i.i

if.then.i.i.i:                                    ; preds = %entry
  %cmp3.not.i.i.i = icmp eq ptr %1, null
  br i1 %cmp3.not.i.i.i, label %if.end.i.i.i, label %if.then4.i.i.i

if.then4.i.i.i:                                   ; preds = %if.then.i.i.i
  %_M_use_count.i.i.i.i = getelementptr inbounds i8, ptr %1, i64 8
  %3 = load i8, ptr @__libc_single_threaded, align 1
  %tobool.i.i.not.i.i.i.i = icmp eq i8 %3, 0
  br i1 %tobool.i.i.not.i.i.i.i, label %if.else.i.i.i.i.i, label %if.then.i.i.i.i.i

if.then.i.i.i.i.i:                                ; preds = %if.then4.i.i.i
  %4 = load i32, ptr %_M_use_count.i.i.i.i, align 4
  %add.i.i.i.i.i = add nsw i32 %4, 1
  store i32 %add.i.i.i.i.i, ptr %_M_use_count.i.i.i.i, align 4
  br label %if.endthread-pre-split.i.i.i

if.else.i.i.i.i.i:                                ; preds = %if.then4.i.i.i
  %5 = atomicrmw volatile add ptr %_M_use_count.i.i.i.i, i32 1 acq_rel, align 4
  br label %if.endthread-pre-split.i.i.i

if.endthread-pre-split.i.i.i:                     ; preds = %if.else.i.i.i.i.i, %if.then.i.i.i.i.i
  %.pr.i.i.i = load ptr, ptr %_M_refcount.i.i, align 8
  br label %if.end.i.i.i

if.end.i.i.i:                                     ; preds = %if.endthread-pre-split.i.i.i, %if.then.i.i.i
  %6 = phi ptr [ %.pr.i.i.i, %if.endthread-pre-split.i.i.i ], [ %2, %if.then.i.i.i ]
  %cmp6.not.i.i.i = icmp eq ptr %6, null
  br i1 %cmp6.not.i.i.i, label %if.end9.i.i.i, label %if.then7.i.i.i

if.then7.i.i.i:                                   ; preds = %if.end.i.i.i
  %_M_use_count.i5.i.i.i = getelementptr inbounds i8, ptr %6, i64 8
  %7 = load atomic i64, ptr %_M_use_count.i5.i.i.i acquire, align 8
  %cmp.i.i.i.i = icmp eq i64 %7, 4294967297
  %8 = trunc i64 %7 to i32
  br i1 %cmp.i.i.i.i, label %if.then.i.i.i.i, label %if.end.i.i.i.i

if.then.i.i.i.i:                                  ; preds = %if.then7.i.i.i
  store i32 0, ptr %_M_use_count.i5.i.i.i, align 8
  %_M_weak_count.i.i.i.i = getelementptr inbounds i8, ptr %6, i64 12
  store i32 0, ptr %_M_weak_count.i.i.i.i, align 4
  %vtable.i.i.i.i = load ptr, ptr %6, align 8
  %vfn.i.i.i.i = getelementptr inbounds i8, ptr %vtable.i.i.i.i, i64 16
  %9 = load ptr, ptr %vfn.i.i.i.i, align 8
  tail call void %9(ptr noundef nonnull align 8 dereferenceable(16) %6) #18
  br label %if.end8.sink.split.i.i.i.i

if.end.i.i.i.i:                                   ; preds = %if.then7.i.i.i
  %10 = load i8, ptr @__libc_single_threaded, align 1
  %tobool.i.not.i.i.i.i = icmp eq i8 %10, 0
  br i1 %tobool.i.not.i.i.i.i, label %if.else.i.i8.i.i.i, label %if.then.i.i6.i.i.i

if.then.i.i6.i.i.i:                               ; preds = %if.end.i.i.i.i
  %add.i.i7.i.i.i = add nsw i32 %8, -1
  store i32 %add.i.i7.i.i.i, ptr %_M_use_count.i5.i.i.i, align 4
  br label %_ZN9__gnu_cxx27__exchange_and_add_dispatchEPii.exit.i.i.i.i

if.else.i.i8.i.i.i:                               ; preds = %if.end.i.i.i.i
  %11 = atomicrmw volatile add ptr %_M_use_count.i5.i.i.i, i32 -1 acq_rel, align 4
  br label %_ZN9__gnu_cxx27__exchange_and_add_dispatchEPii.exit.i.i.i.i

_ZN9__gnu_cxx27__exchange_and_add_dispatchEPii.exit.i.i.i.i: ; preds = %if.else.i.i8.i.i.i, %if.then.i.i6.i.i.i
  %retval.i.0.i.i.i.i = phi i32 [ %8, %if.then.i.i6.i.i.i ], [ %11, %if.else.i.i8.i.i.i ]
  %cmp6.i.i.i.i = icmp eq i32 %retval.i.0.i.i.i.i, 1
  br i1 %cmp6.i.i.i.i, label %if.then7.i.i.i.i, label %if.end9.i.i.i

if.then7.i.i.i.i:                                 ; preds = %_ZN9__gnu_cxx27__exchange_and_add_dispatchEPii.exit.i.i.i.i
  %vtable.i.i.i.i.i.i = load ptr, ptr %6, align 8
  %vfn.i.i.i.i.i.i = getelementptr inbounds i8, ptr %vtable.i.i.i.i.i.i, i64 16
  %12 = load ptr, ptr %vfn.i.i.i.i.i.i, align 8
  tail call void %12(ptr noundef nonnull align 8 dereferenceable(16) %6) #18
  %_M_weak_count.i.i.i.i.i.i = getelementptr inbounds i8, ptr %6, i64 12
  %13 = load i8, ptr @__libc_single_threaded, align 1
  %tobool.i.not.i.i.i.i.i.i = icmp eq i8 %13, 0
  br i1 %tobool.i.not.i.i.i.i.i.i, label %if.else.i.i.i.i.i.i.i, label %if.then.i.i.i.i.i.i.i

if.then.i.i.i.i.i.i.i:                            ; preds = %if.then7.i.i.i.i
  %14 = load i32, ptr %_M_weak_count.i.i.i.i.i.i, align 4
  %add.i.i.i.i.i.i.i = add nsw i32 %14, -1
  store i32 %add.i.i.i.i.i.i.i, ptr %_M_weak_count.i.i.i.i.i.i, align 4
  br label %_ZN9__gnu_cxx27__exchange_and_add_dispatchEPii.exit.i.i.i.i.i.i

if.else.i.i.i.i.i.i.i:                            ; preds = %if.then7.i.i.i.i
  %15 = atomicrmw volatile add ptr %_M_weak_count.i.i.i.i.i.i, i32 -1 acq_rel, align 4
  br label %_ZN9__gnu_cxx27__exchange_and_add_dispatchEPii.exit.i.i.i.i.i.i

_ZN9__gnu_cxx27__exchange_and_add_dispatchEPii.exit.i.i.i.i.i.i: ; preds = %if.else.i.i.i.i.i.i.i, %if.then.i.i.i.i.i.i.i
  %retval.i.0.i.i.i.i.i.i = phi i32 [ %14, %if.then.i.i.i.i.i.i.i ], [ %15, %if.else.i.i.i.i.i.i.i ]
  %cmp.i.i.i.i.i.i = icmp eq i32 %retval.i.0.i.i.i.i.i.i, 1
  br i1 %cmp.i.i.i.i.i.i, label %if.end8.sink.split.i.i.i.i, label %if.end9.i.i.i

if.end8.sink.split.i.i.i.i:                       ; preds = %_ZN9__gnu_cxx27__exchange_and_add_dispatchEPii.exit.i.i.i.i.i.i, %if.then.i.i.i.i
  %vtable2.i.i.i.i.i.i = load ptr, ptr %6, align 8
  %vfn3.i.i.i.i.i.i = getelementptr inbounds i8, ptr %vtable2.i.i.i.i.i.i, i64 24
  %16 = load ptr, ptr %vfn3.i.i.i.i.i.i, align 8
  tail call void %16(ptr noundef nonnull align 8 dereferenceable(16) %6) #18
  br label %if.end9.i.i.i

if.end9.i.i.i:                                    ; preds = %if.end8.sink.split.i.i.i.i, %_ZN9__gnu_cxx27__exchange_and_add_dispatchEPii.exit.i.i.i.i.i.i, %_ZN9__gnu_cxx27__exchange_and_add_dispatchEPii.exit.i.i.i.i, %if.end.i.i.i
  store ptr %1, ptr %_M_refcount.i.i, align 8
  br label %_ZNSt10shared_ptrIN19OpenColorIO_v2_4dev33DynamicPropertyGradingPrimaryImplEEaSERKS2_.exit

_ZNSt10shared_ptrIN19OpenColorIO_v2_4dev33DynamicPropertyGradingPrimaryImplEEaSERKS2_.exit: ; preds = %entry, %if.end9.i.i.i
  ret void
}